target datalayout = "e-m:e-p270:32:32-p271:32:32-p272:64:64-i64:64-i128:128-f80:128-n8:16:32:64-S128"
target triple = "x86_64-pc-linux-gnu"

%struct.nameData = type { [64 x i8] }
%struct.RelationData = type { %struct.RelFileLocator, ptr, i32, i32, i8, i8, i8, i8, i8, i32, i32, i32, i32, ptr, ptr, i32, %struct.LockInfoData, ptr, ptr, ptr, ptr, ptr, i8, ptr, ptr, ptr, ptr, ptr, ptr, i32, ptr, i8, ptr, ptr, i32, i8, i32, ptr, i8, ptr, ptr, ptr, ptr, ptr, ptr, ptr, i32, ptr, ptr, ptr, ptr, ptr, ptr, ptr, ptr, ptr, ptr, ptr, ptr, ptr, ptr, ptr, ptr, ptr, ptr, ptr, i32, i8, ptr }
%struct.RelFileLocator = type { i32, i32, i32 }
%struct.LockInfoData = type { %struct.LockRelId }
%struct.LockRelId = type { i32, i32 }
%struct.FormData_pg_class = type { i32, %struct.nameData, i32, i32, i32, i32, i32, i32, i32, i32, float, i32, i32, i8, i8, i8, i8, i16, i16, i8, i8, i8, i8, i8, i8, i8, i8, i32, i32, i32 }
%struct.ForEachState = type { ptr, i32 }
%struct.List = type { i32, i32, i32, ptr, [0 x %union.ListCell] }
%union.ListCell = type { ptr }
%struct.Expr = type { i32 }
%struct.Var = type { %struct.Expr, i32, i16, i32, i32, i32, ptr, i32, i32, i32, i16, i32 }

@.str.1 = private unnamed_addr constant [7 x i8] c"heap.c\00", align 1
@.str.54 = private unnamed_addr constant [59 x i8] c"cannot add NO INHERIT constraint to partitioned table \22%s\22\00", align 1
@__func__.StoreRelCheck = private unnamed_addr constant [14 x i8] c"StoreRelCheck\00", align 1

; Function Attrs: inlinehint nounwind uwtable
define internal i32 @list_length(ptr noundef %0) #5 {
  %2 = alloca ptr, align 8
  store ptr %0, ptr %2, align 8
  %3 = load ptr, ptr %2, align 8
  %4 = icmp ne ptr %3, null
  br i1 %4, label %5, label %9

5:                                                ; preds = %1
  %6 = load ptr, ptr %2, align 8
  %7 = getelementptr inbounds nuw %struct.List, ptr %6, i32 0, i32 1
  %8 = load i32, ptr %7, align 4
  br label %10

9:                                                ; preds = %1
  br label %10

10:                                               ; preds = %9, %5
  %11 = phi i32 [ %8, %5 ], [ 0, %9 ]
  ret i32 %11
}

; Function Attrs: nounwind uwtable
define internal i32 @StoreRelCheck(ptr noundef %0, ptr noundef %1, ptr noundef %2, i1 noundef zeroext %3, i1 noundef zeroext %4, i1 noundef zeroext %5, i16 noundef signext %6, i1 noundef zeroext %7, i1 noundef zeroext %8) #0 {
  %10 = alloca ptr, align 8
  %11 = alloca ptr, align 8
  %12 = alloca ptr, align 8
  %13 = alloca i8, align 1
  %14 = alloca i8, align 1
  %15 = alloca i8, align 1
  %16 = alloca i16, align 2
  %17 = alloca i8, align 1
  %18 = alloca i8, align 1
  %19 = alloca ptr, align 8
  %20 = alloca ptr, align 8
  %21 = alloca i32, align 4
  %22 = alloca ptr, align 8
  %23 = alloca i32, align 4
  %24 = alloca ptr, align 8
  %25 = alloca i32, align 4
  %26 = alloca %struct.ForEachState, align 8
  %27 = alloca ptr, align 8
  %28 = alloca i32, align 4
  store ptr %0, ptr %10, align 8
  store ptr %1, ptr %11, align 8
  store ptr %2, ptr %12, align 8
  %29 = zext i1 %3 to i8
  store i8 %29, ptr %13, align 1
  %30 = zext i1 %4 to i8
  store i8 %30, ptr %14, align 1
  %31 = zext i1 %5 to i8
  store i8 %31, ptr %15, align 1
  store i16 %6, ptr %16, align 2
  %32 = zext i1 %7 to i8
  store i8 %32, ptr %17, align 1
  %33 = zext i1 %8 to i8
  store i8 %33, ptr %18, align 1
  call void @llvm.lifetime.start.p0(i64 8, ptr %19) #10
  call void @llvm.lifetime.start.p0(i64 8, ptr %20) #10
  call void @llvm.lifetime.start.p0(i64 4, ptr %21) #10
  call void @llvm.lifetime.start.p0(i64 8, ptr %22) #10
  call void @llvm.lifetime.start.p0(i64 4, ptr %23) #10
  %34 = load ptr, ptr %12, align 8
  %35 = call ptr @nodeToString(ptr noundef %34)
  store ptr %35, ptr %19, align 8
  %36 = load ptr, ptr %12, align 8
  %37 = call ptr @pull_var_clause(ptr noundef %36, i32 noundef 0)
  store ptr %37, ptr %20, align 8
  %38 = load ptr, ptr %20, align 8
  %39 = call i32 @list_length(ptr noundef %38)
  store i32 %39, ptr %21, align 4
  %40 = load i32, ptr %21, align 4
  %41 = icmp sgt i32 %40, 0
  br i1 %41, label %42, label %121

42:                                               ; preds = %9
  call void @llvm.lifetime.start.p0(i64 8, ptr %24) #10
  call void @llvm.lifetime.start.p0(i64 4, ptr %25) #10
  store i32 0, ptr %25, align 4
  %43 = load i32, ptr %21, align 4
  %44 = sext i32 %43 to i64
  %45 = mul i64 %44, 2
  %46 = call ptr @palloc(i64 noundef %45)
  store ptr %46, ptr %22, align 8
  call void @llvm.lifetime.start.p0(i64 16, ptr %26) #10
  %47 = getelementptr inbounds nuw %struct.ForEachState, ptr %26, i32 0, i32 0
  %48 = load ptr, ptr %20, align 8
  store ptr %48, ptr %47, align 8
  %49 = getelementptr inbounds nuw %struct.ForEachState, ptr %26, i32 0, i32 1
  store i32 0, ptr %49, align 8
  %50 = getelementptr i8, ptr %26, i64 12
  call void @llvm.memset.p0.i64(ptr align 4 %50, i8 0, i64 4, i1 false)
  br label %51

51:                                               ; preds = %115, %42
  %52 = getelementptr inbounds nuw %struct.ForEachState, ptr %26, i32 0, i32 0
  %53 = load ptr, ptr %52, align 8
  %54 = icmp ne ptr %53, null
  br i1 %54, label %55, label %72

55:                                               ; preds = %51
  %56 = getelementptr inbounds nuw %struct.ForEachState, ptr %26, i32 0, i32 1
  %57 = load i32, ptr %56, align 8
  %58 = getelementptr inbounds nuw %struct.ForEachState, ptr %26, i32 0, i32 0
  %59 = load ptr, ptr %58, align 8
  %60 = getelementptr inbounds nuw %struct.List, ptr %59, i32 0, i32 1
  %61 = load i32, ptr %60, align 4
  %62 = icmp slt i32 %57, %61
  br i1 %62, label %63, label %72

63:                                               ; preds = %55
  %64 = getelementptr inbounds nuw %struct.ForEachState, ptr %26, i32 0, i32 0
  %65 = load ptr, ptr %64, align 8
  %66 = getelementptr inbounds nuw %struct.List, ptr %65, i32 0, i32 3
  %67 = load ptr, ptr %66, align 8
  %68 = getelementptr inbounds nuw %struct.ForEachState, ptr %26, i32 0, i32 1
  %69 = load i32, ptr %68, align 8
  %70 = sext i32 %69 to i64
  %71 = getelementptr inbounds %union.ListCell, ptr %67, i64 %70
  store ptr %71, ptr %24, align 8
  br label %73

72:                                               ; preds = %55, %51
  store ptr null, ptr %24, align 8
  br label %73

73:                                               ; preds = %72, %63
  %74 = phi i32 [ 1, %63 ], [ 0, %72 ]
  %75 = icmp ne i32 %74, 0
  br i1 %75, label %77, label %76

76:                                               ; preds = %73
  call void @llvm.lifetime.end.p0(i64 16, ptr %26) #10
  br label %119

77:                                               ; preds = %73
  call void @llvm.lifetime.start.p0(i64 8, ptr %27) #10
  %78 = load ptr, ptr %24, align 8
  %79 = load ptr, ptr %78, align 8
  store ptr %79, ptr %27, align 8
  call void @llvm.lifetime.start.p0(i64 4, ptr %28) #10
  store i32 0, ptr %28, align 4
  br label %80

80:                                               ; preds = %98, %77
  %81 = load i32, ptr %28, align 4
  %82 = load i32, ptr %25, align 4
  %83 = icmp slt i32 %81, %82
  br i1 %83, label %84, label %101

84:                                               ; preds = %80
  %85 = load ptr, ptr %22, align 8
  %86 = load i32, ptr %28, align 4
  %87 = sext i32 %86 to i64
  %88 = getelementptr inbounds i16, ptr %85, i64 %87
  %89 = load i16, ptr %88, align 2
  %90 = sext i16 %89 to i32
  %91 = load ptr, ptr %27, align 8
  %92 = getelementptr inbounds nuw %struct.Var, ptr %91, i32 0, i32 2
  %93 = load i16, ptr %92, align 8
  %94 = sext i16 %93 to i32
  %95 = icmp eq i32 %90, %94
  br i1 %95, label %96, label %97

96:                                               ; preds = %84
  br label %101

97:                                               ; preds = %84
  br label %98

98:                                               ; preds = %97
  %99 = load i32, ptr %28, align 4
  %100 = add i32 %99, 1
  store i32 %100, ptr %28, align 4
  br label %80, !llvm.loop !29

101:                                              ; preds = %96, %80
  %102 = load i32, ptr %28, align 4
  %103 = load i32, ptr %25, align 4
  %104 = icmp eq i32 %102, %103
  br i1 %104, label %105, label %114

105:                                              ; preds = %101
  %106 = load ptr, ptr %27, align 8
  %107 = getelementptr inbounds nuw %struct.Var, ptr %106, i32 0, i32 2
  %108 = load i16, ptr %107, align 8
  %109 = load ptr, ptr %22, align 8
  %110 = load i32, ptr %25, align 4
  %111 = add i32 %110, 1
  store i32 %111, ptr %25, align 4
  %112 = sext i32 %110 to i64
  %113 = getelementptr inbounds i16, ptr %109, i64 %112
  store i16 %108, ptr %113, align 2
  br label %114

114:                                              ; preds = %105, %101
  call void @llvm.lifetime.end.p0(i64 4, ptr %28) #10
  call void @llvm.lifetime.end.p0(i64 8, ptr %27) #10
  br label %115

115:                                              ; preds = %114
  %116 = getelementptr inbounds nuw %struct.ForEachState, ptr %26, i32 0, i32 1
  %117 = load i32, ptr %116, align 8
  %118 = add i32 %117, 1
  store i32 %118, ptr %116, align 8
  br label %51, !llvm.loop !30

119:                                              ; preds = %76
  %120 = load i32, ptr %25, align 4
  store i32 %120, ptr %21, align 4
  call void @llvm.lifetime.end.p0(i64 4, ptr %25) #10
  call void @llvm.lifetime.end.p0(i64 8, ptr %24) #10
  br label %122

121:                                              ; preds = %9
  store ptr null, ptr %22, align 8
  br label %122

122:                                              ; preds = %121, %119
  %123 = load i8, ptr %17, align 1, !range !6, !noundef !7
  %124 = trunc i8 %123 to i1
  br i1 %124, label %125, label %151

125:                                              ; preds = %122
  %126 = load ptr, ptr %10, align 8
  %127 = getelementptr inbounds nuw %struct.RelationData, ptr %126, i32 0, i32 13
  %128 = load ptr, ptr %127, align 8
  %129 = getelementptr inbounds nuw %struct.FormData_pg_class, ptr %128, i32 0, i32 16
  %130 = load i8, ptr %129, align 1
  %131 = sext i8 %130 to i32
  %132 = icmp eq i32 %131, 112
  br i1 %132, label %133, label %151

133:                                              ; preds = %125
  br label %134

134:                                              ; preds = %133
  br i1 true, label %135, label %137

135:                                              ; preds = %134
  %136 = call zeroext i1 @errstart_cold(i32 noundef 21, ptr noundef null) #9
  br i1 %136, label %139, label %148

137:                                              ; preds = %134
  %138 = call zeroext i1 @errstart(i32 noundef 21, ptr noundef null)
  br i1 %138, label %139, label %148

139:                                              ; preds = %137, %135
  %140 = call i32 @errcode(i32 noundef 101056644)
  %141 = load ptr, ptr %10, align 8
  %142 = getelementptr inbounds nuw %struct.RelationData, ptr %141, i32 0, i32 13
  %143 = load ptr, ptr %142, align 8
  %144 = getelementptr inbounds nuw %struct.FormData_pg_class, ptr %143, i32 0, i32 1
  %145 = getelementptr inbounds nuw %struct.nameData, ptr %144, i32 0, i32 0
  %146 = getelementptr inbounds [64 x i8], ptr %145, i64 0, i64 0
  %147 = call i32 (ptr, ...) @errmsg(ptr noundef @.str.54, ptr noundef %146)
  call void @errfinish(ptr noundef @.str.1, i32 noundef 2136, ptr noundef @__func__.StoreRelCheck)
  br label %148

148:                                              ; preds = %139, %137, %135
  unreachable

149:                                              ; No predecessors!
  br label %150

150:                                              ; preds = %149
  br label %151

151:                                              ; preds = %150, %125, %122
  %152 = load ptr, ptr %11, align 8
  %153 = load ptr, ptr %10, align 8
  %154 = getelementptr inbounds nuw %struct.RelationData, ptr %153, i32 0, i32 13
  %155 = load ptr, ptr %154, align 8
  %156 = getelementptr inbounds nuw %struct.FormData_pg_class, ptr %155, i32 0, i32 2
  %157 = load i32, ptr %156, align 4
  %158 = load i8, ptr %13, align 1, !range !6, !noundef !7
  %159 = trunc i8 %158 to i1
  %160 = load i8, ptr %14, align 1, !range !6, !noundef !7
  %161 = trunc i8 %160 to i1
  %162 = load ptr, ptr %10, align 8
  %163 = getelementptr inbounds nuw %struct.RelationData, ptr %162, i32 0, i32 15
  %164 = load i32, ptr %163, align 8
  %165 = load ptr, ptr %22, align 8
  %166 = load i32, ptr %21, align 4
  %167 = load i32, ptr %21, align 4
  %168 = load ptr, ptr %12, align 8
  %169 = load ptr, ptr %19, align 8
  %170 = load i8, ptr %15, align 1, !range !6, !noundef !7
  %171 = trunc i8 %170 to i1
  %172 = load i16, ptr %16, align 2
  %173 = load i8, ptr %17, align 1, !range !6, !noundef !7
  %174 = trunc i8 %173 to i1
  %175 = load i8, ptr %18, align 1, !range !6, !noundef !7
  %176 = trunc i8 %175 to i1
  %177 = call i32 @CreateConstraintEntry(ptr noundef %152, i32 noundef %157, i8 noundef signext 99, i1 noundef zeroext false, i1 noundef zeroext false, i1 noundef zeroext %159, i1 noundef zeroext %161, i32 noundef 0, i32 noundef %164, ptr noundef %165, i32 noundef %166, i32 noundef %167, i32 noundef 0, i32 noundef 0, i32 noundef 0, ptr noundef null, ptr noundef null, ptr noundef null, ptr noundef null, i32 noundef 0, i8 noundef signext 32, i8 noundef signext 32, ptr noundef null, i32 noundef 0, i8 noundef signext 32, ptr noundef null, ptr noundef %168, ptr noundef %169, i1 noundef zeroext %171, i16 noundef signext %172, i1 noundef zeroext %174, i1 noundef zeroext false, i1 noundef zeroext %176)
  store i32 %177, ptr %23, align 4
  %178 = load ptr, ptr %19, align 8
  call void @pfree(ptr noundef %178)
  %179 = load i32, ptr %23, align 4
  call void @llvm.lifetime.end.p0(i64 4, ptr %23) #10
  call void @llvm.lifetime.end.p0(i64 8, ptr %22) #10
  call void @llvm.lifetime.end.p0(i64 4, ptr %21) #10
  call void @llvm.lifetime.end.p0(i64 8, ptr %20) #10
  call void @llvm.lifetime.end.p0(i64 8, ptr %19) #10
  ret i32 %179
}