; Function Attrs: nounwind uwtable
define internal fastcc i32 @StoreRelCheck(ptr noundef readonly captures(none) %0, ptr noundef %1, ptr noundef %2, i1 noundef zeroext %3, i1 noundef zeroext %4, i1 noundef zeroext %5, i16 noundef signext %6, i1 noundef zeroext %7, i1 noundef zeroext %8) unnamed_addr #0 {
  %10 = tail call ptr @nodeToString(ptr noundef %2) #11
  %11 = tail call ptr @pull_var_clause(ptr noundef %2, i32 noundef 0) #11
  %.not.i = icmp eq ptr %11, null
  br i1 %.not.i, label %list_length.exit.thread, label %list_length.exit

list_length.exit:                                 ; preds = %9
  %12 = getelementptr inbounds nuw i8, ptr %11, i64 4
  %13 = load i32, ptr %12, align 4
  %14 = icmp sgt i32 %13, 0
  br i1 %14, label %15, label %list_length.exit.thread

15:                                               ; preds = %list_length.exit
  %16 = shl nuw i32 %13, 1
  %17 = zext i32 %16 to i64
  %18 = tail call ptr @palloc(i64 noundef %17) #11
  %19 = load i32, ptr %12, align 4
  %20 = icmp sgt i32 %19, 0
  br i1 %20, label %.lr.ph57, label %list_length.exit.thread

.lr.ph57:                                         ; preds = %15
  %21 = getelementptr inbounds nuw i8, ptr %11, i64 16
  br label %22

22:                                               ; preds = %.lr.ph57, %42
  %23 = phi i32 [ %19, %.lr.ph57 ], [ %43, %42 ]
  %indvars.iv60 = phi i64 [ 0, %.lr.ph57 ], [ %indvars.iv.next61, %42 ]
  %.04454 = phi i32 [ 0, %.lr.ph57 ], [ %.1, %42 ]
  %24 = load ptr, ptr %21, align 8
  %25 = getelementptr inbounds nuw %union.ListCell, ptr %24, i64 %indvars.iv60
  %26 = load ptr, ptr %25, align 8
  %27 = icmp sgt i32 %.04454, 0
  br i1 %27, label %.lr.ph, label %._crit_edge

.lr.ph:                                           ; preds = %22
  %28 = getelementptr inbounds nuw i8, ptr %26, i64 8
  %29 = load i16, ptr %28, align 8
  %wide.trip.count = zext nneg i32 %.04454 to i64
  br label %30

30:                                               ; preds = %.lr.ph, %34
  %indvars.iv = phi i64 [ 0, %.lr.ph ], [ %indvars.iv.next, %34 ]
  %31 = getelementptr inbounds nuw i16, ptr %18, i64 %indvars.iv
  %32 = load i16, ptr %31, align 2
  %33 = icmp eq i16 %32, %29
  br i1 %33, label %._crit_edge.loopexit, label %34

34:                                               ; preds = %30
  %indvars.iv.next = add nuw nsw i64 %indvars.iv, 1
  %exitcond.not = icmp eq i64 %indvars.iv.next, %wide.trip.count
  br i1 %exitcond.not, label %._crit_edge.thread, label %30, !llvm.loop !25

._crit_edge.loopexit:                             ; preds = %30
  %35 = trunc nuw nsw i64 %indvars.iv to i32
  br label %._crit_edge

._crit_edge:                                      ; preds = %._crit_edge.loopexit, %22
  %.0.lcssa = phi i32 [ 0, %22 ], [ %35, %._crit_edge.loopexit ]
  %36 = icmp eq i32 %.0.lcssa, %.04454
  br i1 %36, label %._crit_edge.thread, label %42

._crit_edge.thread:                               ; preds = %34, %._crit_edge
  %37 = getelementptr inbounds nuw i8, ptr %26, i64 8
  %38 = load i16, ptr %37, align 8
  %39 = add i32 %.04454, 1
  %40 = sext i32 %.04454 to i64
  %41 = getelementptr inbounds i16, ptr %18, i64 %40
  store i16 %38, ptr %41, align 2
  %.pre = load i32, ptr %12, align 4
  br label %42

42:                                               ; preds = %._crit_edge.thread, %._crit_edge
  %43 = phi i32 [ %.pre, %._crit_edge.thread ], [ %23, %._crit_edge ]
  %.1 = phi i32 [ %39, %._crit_edge.thread ], [ %.04454, %._crit_edge ]
  %indvars.iv.next61 = add nuw nsw i64 %indvars.iv60, 1
  %44 = sext i32 %43 to i64
  %45 = icmp slt i64 %indvars.iv.next61, %44
  br i1 %45, label %22, label %list_length.exit.thread, !llvm.loop !26

list_length.exit.thread:                          ; preds = %42, %15, %9, %list_length.exit
  %.042 = phi ptr [ null, %list_length.exit ], [ null, %9 ], [ %18, %15 ], [ %18, %42 ]
  %.041 = phi i32 [ %13, %list_length.exit ], [ 0, %9 ], [ 0, %15 ], [ %.1, %42 ]
  %46 = getelementptr inbounds nuw i8, ptr %0, i64 56
  %47 = load ptr, ptr %46, align 8
  br i1 %7, label %48, label %list_length.exit.thread._crit_edge

48:                                               ; preds = %list_length.exit.thread
  %49 = getelementptr inbounds nuw i8, ptr %47, i64 115
  %50 = load i8, ptr %49, align 1
  %51 = icmp eq i8 %50, 112
  br i1 %51, label %52, label %list_length.exit.thread._crit_edge

52:                                               ; preds = %48
  %53 = tail call zeroext i1 @errstart_cold(i32 noundef 21, ptr noundef null) #10
  tail call void @llvm.assume(i1 %53)
  %54 = tail call i32 @errcode(i32 noundef 101056644) #11
  %55 = load ptr, ptr %46, align 8
  %56 = getelementptr inbounds nuw i8, ptr %55, i64 4
  %57 = tail call i32 (ptr, ...) @errmsg(ptr noundef nonnull @.str.54, ptr noundef nonnull %56) #11
  tail call void @errfinish(ptr noundef nonnull @.str.1, i32 noundef 2136, ptr noundef nonnull @__func__.StoreRelCheck) #11
  unreachable

list_length.exit.thread._crit_edge:               ; preds = %list_length.exit.thread, %48
  %58 = getelementptr inbounds nuw i8, ptr %47, i64 68
  %59 = load i32, ptr %58, align 4
  %60 = getelementptr inbounds nuw i8, ptr %0, i64 72
  %61 = load i32, ptr %60, align 8
  %62 = tail call i32 @CreateConstraintEntry(ptr noundef %1, i32 noundef %59, i8 noundef signext 99, i1 noundef zeroext false, i1 noundef zeroext false, i1 noundef zeroext %3, i1 noundef zeroext %4, i32 noundef 0, i32 noundef %61, ptr noundef %.042, i32 noundef %.041, i32 noundef %.041, i32 noundef 0, i32 noundef 0, i32 noundef 0, ptr noundef null, ptr noundef null, ptr noundef null, ptr noundef null, i32 noundef 0, i8 noundef signext 32, i8 noundef signext 32, ptr noundef null, i32 noundef 0, i8 noundef signext 32, ptr noundef null, ptr noundef %2, ptr noundef %10, i1 noundef zeroext %5, i16 noundef signext %6, i1 noundef zeroext %7, i1 noundef zeroext false, i1 noundef zeroext %8) #11
  tail call void @pfree(ptr noundef %10) #11
  ret i32 %62
}